target datalayout = "e-m:e-p270:32:32-p271:32:32-p272:64:64-i64:64-i128:128-f80:128-n8:16:32:64-S128"
target triple = "x86_64-pc-linux-gnu"

%class.Effect = type <{ %"class.std::vector", %"class.std::vector", %"class.std::vector", i8, i8, [6 x i8] }>
%"class.std::vector" = type { %"struct.std::_Vector_base" }
%"struct.std::_Vector_base" = type { %"struct.std::_Vector_base<const Variable *, std::allocator<const Variable *>>::_Vector_impl" }
%"struct.std::_Vector_base<const Variable *, std::allocator<const Variable *>>::_Vector_impl" = type { %"struct.std::_Vector_base<const Variable *, std::allocator<const Variable *>>::_Vector_impl_data" }
%"struct.std::_Vector_base<const Variable *, std::allocator<const Variable *>>::_Vector_impl_data" = type { ptr, ptr, ptr }
%class.Variable = type { ptr, %"class.std::vector.0", %"class.std::__cxx11::basic_string", ptr, ptr, i8, i8, i8, i8, i8, i8, ptr, i8, %class.CVQualifiers }
%"class.std::vector.0" = type { %"struct.std::_Vector_base.1" }
%"struct.std::_Vector_base.1" = type { %"struct.std::_Vector_base<Variable *, std::allocator<Variable *>>::_Vector_impl" }
%"struct.std::_Vector_base<Variable *, std::allocator<Variable *>>::_Vector_impl" = type { %"struct.std::_Vector_base<Variable *, std::allocator<Variable *>>::_Vector_impl_data" }
%"struct.std::_Vector_base<Variable *, std::allocator<Variable *>>::_Vector_impl_data" = type { ptr, ptr, ptr }
%"class.std::__cxx11::basic_string" = type { %"struct.std::__cxx11::basic_string<char>::_Alloc_hider", i64, %union.anon }
%"struct.std::__cxx11::basic_string<char>::_Alloc_hider" = type { ptr }
%union.anon = type { i64, [8 x i8] }
%class.CVQualifiers = type { ptr, i8, i8, %"class.std::vector.8", %"class.std::vector.8" }
%"class.std::vector.8" = type { %"struct.std::_Bvector_base" }
%"struct.std::_Bvector_base" = type { %"struct.std::_Bvector_base<std::allocator<bool>>::_Bvector_impl" }
%"struct.std::_Bvector_base<std::allocator<bool>>::_Bvector_impl" = type { %"struct.std::_Bvector_base<std::allocator<bool>>::_Bvector_impl_data" }
%"struct.std::_Bvector_base<std::allocator<bool>>::_Bvector_impl_data" = type { %"struct.std::_Bit_iterator", %"struct.std::_Bit_iterator", ptr }
%"struct.std::_Bit_iterator" = type { %"struct.std::_Bit_iterator_base.base", [4 x i8] }
%"struct.std::_Bit_iterator_base.base" = type <{ ptr, i32 }>

; Function Attrs: mustprogress nounwind uwtable
define linkonce_odr dso_local noundef nonnull align 8 dereferenceable(8) ptr @_ZNKSt6vectorIPK8VariableSaIS2_EEixEm(ptr noundef nonnull align 8 dereferenceable(24) %0, i64 noundef %1) #6 comdat align 2 {
  %3 = alloca ptr, align 8
  %4 = alloca i64, align 8
  store ptr %0, ptr %3, align 8, !tbaa !20
  store i64 %1, ptr %4, align 8, !tbaa !22
  %5 = load ptr, ptr %3, align 8
  %6 = getelementptr inbounds nuw %"struct.std::_Vector_base", ptr %5, i32 0, i32 0
  %7 = getelementptr inbounds nuw %"struct.std::_Vector_base<const Variable *, std::allocator<const Variable *>>::_Vector_impl_data", ptr %6, i32 0, i32 0
  %8 = load ptr, ptr %7, align 8, !tbaa !24
  %9 = load i64, ptr %4, align 8, !tbaa !22
  %10 = getelementptr inbounds nuw ptr, ptr %8, i64 %9
  ret ptr %10
}

; Function Attrs: mustprogress nounwind uwtable
define linkonce_odr dso_local noundef i64 @_ZNKSt6vectorIPK8VariableSaIS2_EE4sizeEv(ptr noundef nonnull align 8 dereferenceable(24) %0) #6 comdat align 2 {
  %2 = alloca ptr, align 8
  store ptr %0, ptr %2, align 8, !tbaa !20
  %3 = load ptr, ptr %2, align 8
  %4 = getelementptr inbounds nuw %"struct.std::_Vector_base", ptr %3, i32 0, i32 0
  %5 = getelementptr inbounds nuw %"struct.std::_Vector_base<const Variable *, std::allocator<const Variable *>>::_Vector_impl_data", ptr %4, i32 0, i32 1
  %6 = load ptr, ptr %5, align 8, !tbaa !25
  %7 = getelementptr inbounds nuw %"struct.std::_Vector_base", ptr %3, i32 0, i32 0
  %8 = getelementptr inbounds nuw %"struct.std::_Vector_base<const Variable *, std::allocator<const Variable *>>::_Vector_impl_data", ptr %7, i32 0, i32 0
  %9 = load ptr, ptr %8, align 8, !tbaa !24
  %10 = ptrtoint ptr %6 to i64
  %11 = ptrtoint ptr %9 to i64
  %12 = sub i64 %10, %11
  %13 = sdiv exact i64 %12, 8
  ret i64 %13
}

; Function Attrs: mustprogress uwtable
define dso_local noundef zeroext i1 @_ZNK6Effect30sibling_union_field_is_writtenEPK8Variable(ptr noundef nonnull align 8 dereferenceable(74) %0, ptr noundef %1) #4 align 2 {
  %3 = alloca i1, align 1
  %4 = alloca ptr, align 8
  %5 = alloca ptr, align 8
  %6 = alloca ptr, align 8
  %7 = alloca i64, align 8
  %8 = alloca i32, align 4
  %9 = alloca ptr, align 8
  store ptr %0, ptr %4, align 8, !tbaa !4
  store ptr %1, ptr %5, align 8, !tbaa !30
  %10 = load ptr, ptr %4, align 8
  call void @llvm.lifetime.start.p0(i64 8, ptr %6) #3
  %11 = load ptr, ptr %5, align 8, !tbaa !30
  %12 = load ptr, ptr %11, align 8, !tbaa !85
  %13 = getelementptr inbounds ptr, ptr %12, i64 8
  %14 = load ptr, ptr %13, align 8
  %15 = call noundef ptr %14(ptr noundef nonnull align 8 dereferenceable(200) %11)
  %16 = call noundef ptr @_ZNK8Variable19get_container_unionEv(ptr noundef nonnull align 8 dereferenceable(200) %15)
  store ptr %16, ptr %6, align 8, !tbaa !30
  %17 = load ptr, ptr %6, align 8, !tbaa !30
  %18 = icmp ne ptr %17, null
  br i1 %18, label %19, label %50

19:                                               ; preds = %2
  call void @llvm.lifetime.start.p0(i64 8, ptr %7) #3
  store i64 0, ptr %7, align 8, !tbaa !22
  br label %20

20:                                               ; preds = %44, %19
  %21 = load i64, ptr %7, align 8, !tbaa !22
  %22 = getelementptr inbounds nuw %class.Effect, ptr %10, i32 0, i32 1
  %23 = call noundef i64 @_ZNKSt6vectorIPK8VariableSaIS2_EE4sizeEv(ptr noundef nonnull align 8 dereferenceable(24) %22) #3
  %24 = icmp ult i64 %21, %23
  br i1 %24, label %26, label %25

25:                                               ; preds = %20
  store i32 2, ptr %8, align 4
  br label %47

26:                                               ; preds = %20
  call void @llvm.lifetime.start.p0(i64 8, ptr %9) #3
  %27 = getelementptr inbounds nuw %class.Effect, ptr %10, i32 0, i32 1
  %28 = load i64, ptr %7, align 8, !tbaa !22
  %29 = call noundef nonnull align 8 dereferenceable(8) ptr @_ZNKSt6vectorIPK8VariableSaIS2_EEixEm(ptr noundef nonnull align 8 dereferenceable(24) %27, i64 noundef %28) #3
  %30 = load ptr, ptr %29, align 8, !tbaa !30
  %31 = load ptr, ptr %30, align 8, !tbaa !85
  %32 = getelementptr inbounds ptr, ptr %31, i64 8
  %33 = load ptr, ptr %32, align 8
  %34 = call noundef ptr %33(ptr noundef nonnull align 8 dereferenceable(200) %30)
  %35 = call noundef ptr @_ZNK8Variable19get_container_unionEv(ptr noundef nonnull align 8 dereferenceable(200) %34)
  store ptr %35, ptr %9, align 8, !tbaa !30
  %36 = load ptr, ptr %6, align 8, !tbaa !30
  %37 = load ptr, ptr %9, align 8, !tbaa !30
  %38 = icmp eq ptr %36, %37
  br i1 %38, label %39, label %40

39:                                               ; preds = %26
  store i1 true, ptr %3, align 1
  store i32 1, ptr %8, align 4
  br label %41

40:                                               ; preds = %26
  store i32 0, ptr %8, align 4
  br label %41

41:                                               ; preds = %40, %39
  call void @llvm.lifetime.end.p0(i64 8, ptr %9) #3
  %42 = load i32, ptr %8, align 4
  switch i32 %42, label %47 [
    i32 0, label %43
  ]

43:                                               ; preds = %41
  br label %44

44:                                               ; preds = %43
  %45 = load i64, ptr %7, align 8, !tbaa !22
  %46 = add i64 %45, 1
  store i64 %46, ptr %7, align 8, !tbaa !22
  br label %20, !llvm.loop !121

47:                                               ; preds = %41, %25
  call void @llvm.lifetime.end.p0(i64 8, ptr %7) #3
  %48 = load i32, ptr %8, align 4
  switch i32 %48, label %51 [
    i32 2, label %49
  ]

49:                                               ; preds = %47
  br label %50

50:                                               ; preds = %49, %2
  store i1 false, ptr %3, align 1
  store i32 1, ptr %8, align 4
  br label %51

51:                                               ; preds = %50, %47
  call void @llvm.lifetime.end.p0(i64 8, ptr %6) #3
  %52 = load i1, ptr %3, align 1
  ret i1 %52
}

; Function Attrs: mustprogress uwtable
define dso_local noundef zeroext i1 @_ZNK6Effect10is_writtenEPK8Variable(ptr noundef nonnull align 8 dereferenceable(74) %0, ptr noundef %1) #4 align 2 {
  %3 = alloca i1, align 1
  %4 = alloca ptr, align 8
  %5 = alloca ptr, align 8
  %6 = alloca i64, align 8
  %7 = alloca i64, align 8
  %8 = alloca i32, align 4
  store ptr %0, ptr %4, align 8, !tbaa !4
  store ptr %1, ptr %5, align 8, !tbaa !30
  %9 = load ptr, ptr %4, align 8
  call void @llvm.lifetime.start.p0(i64 8, ptr %6) #3
  %10 = getelementptr inbounds nuw %class.Effect, ptr %9, i32 0, i32 1
  %11 = call noundef i64 @_ZNKSt6vectorIPK8VariableSaIS2_EE4sizeEv(ptr noundef nonnull align 8 dereferenceable(24) %10) #3
  store i64 %11, ptr %6, align 8, !tbaa !22
  call void @llvm.lifetime.start.p0(i64 8, ptr %7) #3
  store i64 0, ptr %7, align 8, !tbaa !22
  br label %12

12:                                               ; preds = %25, %2
  %13 = load i64, ptr %7, align 8, !tbaa !22
  %14 = load i64, ptr %6, align 8, !tbaa !22
  %15 = icmp ult i64 %13, %14
  br i1 %15, label %16, label %28

16:                                               ; preds = %12
  %17 = getelementptr inbounds nuw %class.Effect, ptr %9, i32 0, i32 1
  %18 = load i64, ptr %7, align 8, !tbaa !22
  %19 = call noundef nonnull align 8 dereferenceable(8) ptr @_ZNKSt6vectorIPK8VariableSaIS2_EEixEm(ptr noundef nonnull align 8 dereferenceable(24) %17, i64 noundef %18) #3
  %20 = load ptr, ptr %19, align 8, !tbaa !30
  %21 = load ptr, ptr %5, align 8, !tbaa !30
  %22 = icmp eq ptr %20, %21
  br i1 %22, label %23, label %24

23:                                               ; preds = %16
  store i1 true, ptr %3, align 1
  store i32 1, ptr %8, align 4
  br label %39

24:                                               ; preds = %16
  br label %25

25:                                               ; preds = %24
  %26 = load i64, ptr %7, align 8, !tbaa !22
  %27 = add i64 %26, 1
  store i64 %27, ptr %7, align 8, !tbaa !22
  br label %12, !llvm.loop !80

28:                                               ; preds = %12
  %29 = load ptr, ptr %5, align 8, !tbaa !30
  %30 = getelementptr inbounds nuw %class.Variable, ptr %29, i32 0, i32 11
  %31 = load ptr, ptr %30, align 8, !tbaa !32
  %32 = icmp ne ptr %31, null
  br i1 %32, label %33, label %38

33:                                               ; preds = %28
  %34 = load ptr, ptr %5, align 8, !tbaa !30
  %35 = getelementptr inbounds nuw %class.Variable, ptr %34, i32 0, i32 11
  %36 = load ptr, ptr %35, align 8, !tbaa !32
  %37 = call noundef zeroext i1 @_ZNK6Effect10is_writtenEPK8Variable(ptr noundef nonnull align 8 dereferenceable(74) %9, ptr noundef %36)
  store i1 %37, ptr %3, align 1
  store i32 1, ptr %8, align 4
  br label %39

38:                                               ; preds = %28
  store i1 false, ptr %3, align 1
  store i32 1, ptr %8, align 4
  br label %39

39:                                               ; preds = %38, %33, %23
  call void @llvm.lifetime.end.p0(i64 8, ptr %7) #3
  call void @llvm.lifetime.end.p0(i64 8, ptr %6) #3
  %40 = load i1, ptr %3, align 1
  ret i1 %40
}

; Function Attrs: mustprogress uwtable
define dso_local noundef zeroext i1 @_ZNK6Effect20is_written_partiallyEPK8Variable(ptr noundef nonnull align 8 dereferenceable(74) %0, ptr noundef %1) #4 align 2 {
  %3 = alloca ptr, align 8
  %4 = alloca ptr, align 8
  store ptr %0, ptr %3, align 8, !tbaa !4
  store ptr %1, ptr %4, align 8, !tbaa !30
  %5 = load ptr, ptr %3, align 8
  %6 = load ptr, ptr %4, align 8, !tbaa !30
  %7 = call noundef zeroext i1 @_ZNK6Effect10is_writtenEPK8Variable(ptr noundef nonnull align 8 dereferenceable(74) %5, ptr noundef %6)
  br i1 %7, label %14, label %8

8:                                                ; preds = %2
  %9 = load ptr, ptr %4, align 8, !tbaa !30
  %10 = call noundef zeroext i1 @_ZNK6Effect16field_is_writtenEPK8Variable(ptr noundef nonnull align 8 dereferenceable(74) %5, ptr noundef %9)
  br i1 %10, label %14, label %11

11:                                               ; preds = %8
  %12 = load ptr, ptr %4, align 8, !tbaa !30
  %13 = call noundef zeroext i1 @_ZNK6Effect30sibling_union_field_is_writtenEPK8Variable(ptr noundef nonnull align 8 dereferenceable(74) %5, ptr noundef %12)
  br label %14

14:                                               ; preds = %11, %8, %2
  %15 = phi i1 [ true, %8 ], [ true, %2 ], [ %13, %11 ]
  ret i1 %15
}