; Function Attrs: mustprogress uwtable
define dso_local noundef zeroext i1 @_ZNK6Effect20is_written_partiallyEPK8Variable(ptr noundef nonnull readonly align 8 captures(none) dereferenceable(74) %0, ptr noundef %1) local_unnamed_addr #5 align 2 {
  %3 = getelementptr inbounds nuw i8, ptr %0, i64 24
  %4 = getelementptr inbounds nuw i8, ptr %0, i64 32
  %5 = load ptr, ptr %4, align 8, !tbaa !16
  %6 = load ptr, ptr %3, align 8, !tbaa !17
  %.not13.i = icmp eq ptr %5, %6
  br i1 %.not13.i, label %.loopexit, label %tailrecurse.us.preheader.i

tailrecurse.us.preheader.i:                       ; preds = %2
  %7 = ptrtoint ptr %5 to i64
  %8 = ptrtoint ptr %6 to i64
  %9 = sub i64 %7, %8
  %10 = ashr exact i64 %9, 3
  %umax.i = tail call i64 @llvm.umax.i64(i64 %10, i64 1)
  br label %tailrecurse.us.i

tailrecurse.us.i:                                 ; preds = %._crit_edge.us.i, %tailrecurse.us.preheader.i
  %.tr10.us.i = phi ptr [ %18, %._crit_edge.us.i ], [ %1, %tailrecurse.us.preheader.i ]
  br label %13

11:                                               ; preds = %13
  %12 = add nuw i64 %.012.us.i, 1
  %exitcond.not.i = icmp eq i64 %12, %umax.i
  br i1 %exitcond.not.i, label %._crit_edge.us.i, label %13, !llvm.loop !73

13:                                               ; preds = %11, %tailrecurse.us.i
  %.012.us.i = phi i64 [ 0, %tailrecurse.us.i ], [ %12, %11 ]
  %14 = getelementptr inbounds nuw ptr, ptr %6, i64 %.012.us.i
  %15 = load ptr, ptr %14, align 8, !tbaa !23
  %16 = icmp eq ptr %15, %.tr10.us.i
  br i1 %16, label %_ZNK6Effect10is_writtenEPK8Variable.exit, label %11

._crit_edge.us.i:                                 ; preds = %11
  %17 = getelementptr inbounds nuw i8, ptr %.tr10.us.i, i64 88
  %18 = load ptr, ptr %17, align 8, !tbaa !48
  %.not.us.i = icmp eq ptr %18, null
  br i1 %.not.us.i, label %.loopexit, label %tailrecurse.us.i

.loopexit:                                        ; preds = %._crit_edge.us.i, %2
  %19 = tail call noundef zeroext i1 @_ZNK6Effect16field_is_writtenEPK8Variable(ptr noundef nonnull align 8 dereferenceable(74) %0, ptr noundef %1)
  br i1 %19, label %_ZNK6Effect10is_writtenEPK8Variable.exit, label %20

20:                                               ; preds = %.loopexit
  %21 = load ptr, ptr %1, align 8, !tbaa !77
  %22 = getelementptr inbounds nuw i8, ptr %21, i64 64
  %23 = load ptr, ptr %22, align 8
  %24 = tail call noundef ptr %23(ptr noundef nonnull align 8 dereferenceable(200) %1)
  %25 = tail call noundef ptr @_ZNK8Variable19get_container_unionEv(ptr noundef nonnull align 8 dereferenceable(200) %24)
  %.not.i = icmp eq ptr %25, null
  br i1 %.not.i, label %_ZNK6Effect10is_writtenEPK8Variable.exit, label %.preheader.i

.preheader.i:                                     ; preds = %20
  %26 = load ptr, ptr %4, align 8, !tbaa !16
  %27 = load ptr, ptr %3, align 8, !tbaa !17
  %.not1617.not.i = icmp eq ptr %26, %27
  br i1 %.not1617.not.i, label %_ZNK6Effect10is_writtenEPK8Variable.exit, label %.lr.ph.i

28:                                               ; preds = %.lr.ph.i
  %29 = add nuw i64 %.01318.i, 1
  %30 = load ptr, ptr %4, align 8, !tbaa !16
  %31 = load ptr, ptr %3, align 8, !tbaa !17
  %32 = ptrtoint ptr %30 to i64
  %33 = ptrtoint ptr %31 to i64
  %34 = sub i64 %32, %33
  %35 = ashr exact i64 %34, 3
  %.not16.i = icmp ult i64 %29, %35
  br i1 %.not16.i, label %.lr.ph.i, label %_ZNK6Effect10is_writtenEPK8Variable.exit, !llvm.loop !119

.lr.ph.i:                                         ; preds = %.preheader.i, %28
  %36 = phi ptr [ %31, %28 ], [ %27, %.preheader.i ]
  %.01318.i = phi i64 [ %29, %28 ], [ 0, %.preheader.i ]
  %37 = getelementptr inbounds nuw ptr, ptr %36, i64 %.01318.i
  %38 = load ptr, ptr %37, align 8, !tbaa !23
  %39 = load ptr, ptr %38, align 8, !tbaa !77
  %40 = getelementptr inbounds nuw i8, ptr %39, i64 64
  %41 = load ptr, ptr %40, align 8
  %42 = tail call noundef ptr %41(ptr noundef nonnull align 8 dereferenceable(200) %38)
  %43 = tail call noundef ptr @_ZNK8Variable19get_container_unionEv(ptr noundef nonnull align 8 dereferenceable(200) %42)
  %.not15.i = icmp eq ptr %25, %43
  br i1 %.not15.i, label %_ZNK6Effect10is_writtenEPK8Variable.exit, label %28

_ZNK6Effect10is_writtenEPK8Variable.exit:         ; preds = %13, %.lr.ph.i, %28, %.preheader.i, %20, %.loopexit
  %44 = phi i1 [ true, %.loopexit ], [ false, %20 ], [ false, %.preheader.i ], [ %.not15.i, %28 ], [ %.not15.i, %.lr.ph.i ], [ true, %13 ]
  ret i1 %44
}